; Function Attrs: mustprogress uwtable
define hidden void @_ZN2lp10lar_solver62update_x_and_inf_costs_for_columns_with_changed_bounds_tableauEv(ptr noundef nonnull align 8 dereferenceable(2128) %0) local_unnamed_addr #5 align 2 {
  %2 = getelementptr inbounds nuw i8, ptr %0, i64 1432
  %3 = getelementptr inbounds nuw i8, ptr %0, i64 1440
  %4 = load ptr, ptr %3, align 8, !tbaa !247
  %5 = load i32, ptr %2, align 8, !tbaa !225
  %6 = zext i32 %5 to i64
  %7 = getelementptr inbounds nuw i32, ptr %4, i64 %6
  %.not7 = icmp eq i32 %5, 0
  br i1 %.not7, label %._crit_edge, label %.lr.ph

._crit_edge:                                      ; preds = %.lr.ph, %1
  ret void

.lr.ph:                                           ; preds = %1, %.lr.ph
  %.08 = phi ptr [ %9, %.lr.ph ], [ %4, %1 ]
  %8 = load i32, ptr %.08, align 4, !tbaa !261
  tail call void @_ZN2lp10lar_solver53update_x_and_inf_costs_for_column_with_changed_boundsEj(ptr noundef nonnull align 8 dereferenceable(2128) %0, i32 noundef %8)
  %9 = getelementptr inbounds nuw i8, ptr %.08, i64 4
  %.not = icmp eq ptr %9, %7
  br i1 %.not, label %._crit_edge, label %.lr.ph
}